target datalayout = "e-m:e-p270:32:32-p271:32:32-p272:64:64-i64:64-i128:128-f80:128-n8:16:32:64-S128"
target triple = "x86_64-pc-linux-gnu"

%struct.SDL_Renderer = type { ptr, ptr, ptr, ptr, ptr, ptr, ptr, ptr, ptr, ptr, ptr, ptr, ptr, ptr, ptr, ptr, ptr, ptr, ptr, ptr, ptr, ptr, ptr, ptr, ptr, ptr, ptr, ptr, ptr, ptr, i32, i8, ptr, i8, i8, i8, i64, i64, ptr, %struct.SDL_RenderViewState, %struct.SDL_FPoint, i32, i32, ptr, ptr, ptr, i32, float, float, float, float, %struct.SDL_FColor, i32, i32, i32, ptr, ptr, ptr, ptr, i32, %struct.SDL_FColor, float, %struct.SDL_Rect, %struct.SDL_Rect, i8, i8, i8, i8, ptr, i64, i64, i8, ptr, ptr, i32, ptr, i8, ptr, ptr }
%struct.SDL_RenderViewState = type { i32, i32, %struct.SDL_Rect, %struct.SDL_Rect, %struct.SDL_Rect, %struct.SDL_Rect, i8, %struct.SDL_FPoint, i32, i32, i32, %struct.SDL_FRect, %struct.SDL_FRect, %struct.SDL_FPoint, %struct.SDL_FPoint, %struct.SDL_FPoint }
%struct.SDL_FRect = type { float, float, float, float }
%struct.SDL_FPoint = type { float, float }
%struct.SDL_FColor = type { float, float, float, float }
%struct.SDL_Rect = type { i32, i32, i32, i32 }

@.str.2 = private unnamed_addr constant [26 x i8] c"Parameter '%s' is invalid\00", align 1
@.str.5 = private unnamed_addr constant [9 x i8] c"renderer\00", align 1
@.str.29 = private unnamed_addr constant [56 x i8] c"Renderer's window has been destroyed, can't use further\00", align 1

; Function Attrs: nounwind uwtable
define hidden zeroext i1 @SDL_GetRenderDrawColorFloat_REAL(ptr noundef %0, ptr noundef %1, ptr noundef %2, ptr noundef %3, ptr noundef %4) #0 {
  %6 = alloca i1, align 1
  %7 = alloca ptr, align 8
  %8 = alloca ptr, align 8
  %9 = alloca ptr, align 8
  %10 = alloca ptr, align 8
  %11 = alloca ptr, align 8
  %12 = alloca %struct.SDL_FColor, align 4
  %13 = alloca i32, align 4
  store ptr %0, ptr %7, align 8
  store ptr %1, ptr %8, align 8
  store ptr %2, ptr %9, align 8
  store ptr %3, ptr %10, align 8
  store ptr %4, ptr %11, align 8
  call void @llvm.lifetime.start.p0(i64 16, ptr %12) #10
  %14 = load ptr, ptr %8, align 8
  %15 = icmp ne ptr %14, null
  br i1 %15, label %16, label %18

16:                                               ; preds = %5
  %17 = load ptr, ptr %8, align 8
  store float 0.000000e+00, ptr %17, align 4
  br label %18

18:                                               ; preds = %16, %5
  %19 = load ptr, ptr %9, align 8
  %20 = icmp ne ptr %19, null
  br i1 %20, label %21, label %23

21:                                               ; preds = %18
  %22 = load ptr, ptr %9, align 8
  store float 0.000000e+00, ptr %22, align 4
  br label %23

23:                                               ; preds = %21, %18
  %24 = load ptr, ptr %10, align 8
  %25 = icmp ne ptr %24, null
  br i1 %25, label %26, label %28

26:                                               ; preds = %23
  %27 = load ptr, ptr %10, align 8
  store float 0.000000e+00, ptr %27, align 4
  br label %28

28:                                               ; preds = %26, %23
  %29 = load ptr, ptr %11, align 8
  %30 = icmp ne ptr %29, null
  br i1 %30, label %31, label %33

31:                                               ; preds = %28
  %32 = load ptr, ptr %11, align 8
  store float 0.000000e+00, ptr %32, align 4
  br label %33

33:                                               ; preds = %31, %28
  %34 = load ptr, ptr %7, align 8
  %35 = call zeroext i1 @SDL_ObjectValid(ptr noundef %34, i32 noundef 2)
  br i1 %35, label %38, label %36

36:                                               ; preds = %33
  %37 = call zeroext i1 (ptr, ...) @SDL_SetError_REAL(ptr noundef @.str.2, ptr noundef @.str.5)
  store i1 false, ptr %6, align 1
  store i32 1, ptr %13, align 4
  br label %76

38:                                               ; preds = %33
  %39 = load ptr, ptr %7, align 8
  %40 = getelementptr inbounds nuw %struct.SDL_Renderer, ptr %39, i32 0, i32 76
  %41 = load i8, ptr %40, align 8, !range !5, !noundef !6
  %42 = trunc i8 %41 to i1
  br i1 %42, label %43, label %45

43:                                               ; preds = %38
  %44 = call zeroext i1 (ptr, ...) @SDL_SetError_REAL(ptr noundef @.str.29)
  store i1 false, ptr %6, align 1
  store i32 1, ptr %13, align 4
  br label %76

45:                                               ; preds = %38
  %46 = load ptr, ptr %7, align 8
  %47 = getelementptr inbounds nuw %struct.SDL_Renderer, ptr %46, i32 0, i32 51
  call void @llvm.memcpy.p0.p0.i64(ptr align 4 %12, ptr align 4 %47, i64 16, i1 false)
  %48 = load ptr, ptr %8, align 8
  %49 = icmp ne ptr %48, null
  br i1 %49, label %50, label %54

50:                                               ; preds = %45
  %51 = getelementptr inbounds nuw %struct.SDL_FColor, ptr %12, i32 0, i32 0
  %52 = load float, ptr %51, align 4
  %53 = load ptr, ptr %8, align 8
  store float %52, ptr %53, align 4
  br label %54

54:                                               ; preds = %50, %45
  %55 = load ptr, ptr %9, align 8
  %56 = icmp ne ptr %55, null
  br i1 %56, label %57, label %61

57:                                               ; preds = %54
  %58 = getelementptr inbounds nuw %struct.SDL_FColor, ptr %12, i32 0, i32 1
  %59 = load float, ptr %58, align 4
  %60 = load ptr, ptr %9, align 8
  store float %59, ptr %60, align 4
  br label %61

61:                                               ; preds = %57, %54
  %62 = load ptr, ptr %10, align 8
  %63 = icmp ne ptr %62, null
  br i1 %63, label %64, label %68

64:                                               ; preds = %61
  %65 = getelementptr inbounds nuw %struct.SDL_FColor, ptr %12, i32 0, i32 2
  %66 = load float, ptr %65, align 4
  %67 = load ptr, ptr %10, align 8
  store float %66, ptr %67, align 4
  br label %68

68:                                               ; preds = %64, %61
  %69 = load ptr, ptr %11, align 8
  %70 = icmp ne ptr %69, null
  br i1 %70, label %71, label %75

71:                                               ; preds = %68
  %72 = getelementptr inbounds nuw %struct.SDL_FColor, ptr %12, i32 0, i32 3
  %73 = load float, ptr %72, align 4
  %74 = load ptr, ptr %11, align 8
  store float %73, ptr %74, align 4
  br label %75

75:                                               ; preds = %71, %68
  store i1 true, ptr %6, align 1
  store i32 1, ptr %13, align 4
  br label %76

76:                                               ; preds = %75, %43, %36
  call void @llvm.lifetime.end.p0(i64 16, ptr %12) #10
  %77 = load i1, ptr %6, align 1
  ret i1 %77
}

; Function Attrs: nounwind uwtable
define hidden zeroext i1 @SDL_GetRenderDrawColor_REAL(ptr noundef %0, ptr noundef %1, ptr noundef %2, ptr noundef %3, ptr noundef %4) #0 {
  %6 = alloca i1, align 1
  %7 = alloca ptr, align 8
  %8 = alloca ptr, align 8
  %9 = alloca ptr, align 8
  %10 = alloca ptr, align 8
  %11 = alloca ptr, align 8
  %12 = alloca float, align 4
  %13 = alloca float, align 4
  %14 = alloca float, align 4
  %15 = alloca float, align 4
  %16 = alloca i32, align 4
  store ptr %0, ptr %7, align 8
  store ptr %1, ptr %8, align 8
  store ptr %2, ptr %9, align 8
  store ptr %3, ptr %10, align 8
  store ptr %4, ptr %11, align 8
  call void @llvm.lifetime.start.p0(i64 4, ptr %12) #10
  call void @llvm.lifetime.start.p0(i64 4, ptr %13) #10
  call void @llvm.lifetime.start.p0(i64 4, ptr %14) #10
  call void @llvm.lifetime.start.p0(i64 4, ptr %15) #10
  %17 = load ptr, ptr %7, align 8
  %18 = call zeroext i1 @SDL_GetRenderDrawColorFloat_REAL(ptr noundef %17, ptr noundef %12, ptr noundef %13, ptr noundef %14, ptr noundef %15)
  br i1 %18, label %40, label %19

19:                                               ; preds = %5
  %20 = load ptr, ptr %8, align 8
  %21 = icmp ne ptr %20, null
  br i1 %21, label %22, label %24

22:                                               ; preds = %19
  %23 = load ptr, ptr %8, align 8
  store i8 0, ptr %23, align 1
  br label %24

24:                                               ; preds = %22, %19
  %25 = load ptr, ptr %9, align 8
  %26 = icmp ne ptr %25, null
  br i1 %26, label %27, label %29

27:                                               ; preds = %24
  %28 = load ptr, ptr %9, align 8
  store i8 0, ptr %28, align 1
  br label %29

29:                                               ; preds = %27, %24
  %30 = load ptr, ptr %10, align 8
  %31 = icmp ne ptr %30, null
  br i1 %31, label %32, label %34

32:                                               ; preds = %29
  %33 = load ptr, ptr %10, align 8
  store i8 0, ptr %33, align 1
  br label %34

34:                                               ; preds = %32, %29
  %35 = load ptr, ptr %11, align 8
  %36 = icmp ne ptr %35, null
  br i1 %36, label %37, label %39

37:                                               ; preds = %34
  %38 = load ptr, ptr %11, align 8
  store i8 0, ptr %38, align 1
  br label %39

39:                                               ; preds = %37, %34
  store i1 false, ptr %6, align 1
  store i32 1, ptr %16, align 4
  br label %73

40:                                               ; preds = %5
  %41 = load ptr, ptr %8, align 8
  %42 = icmp ne ptr %41, null
  br i1 %42, label %43, label %48

43:                                               ; preds = %40
  %44 = load float, ptr %12, align 4
  %45 = fmul float %44, 2.550000e+02
  %46 = fptoui float %45 to i8
  %47 = load ptr, ptr %8, align 8
  store i8 %46, ptr %47, align 1
  br label %48

48:                                               ; preds = %43, %40
  %49 = load ptr, ptr %9, align 8
  %50 = icmp ne ptr %49, null
  br i1 %50, label %51, label %56

51:                                               ; preds = %48
  %52 = load float, ptr %13, align 4
  %53 = fmul float %52, 2.550000e+02
  %54 = fptoui float %53 to i8
  %55 = load ptr, ptr %9, align 8
  store i8 %54, ptr %55, align 1
  br label %56

56:                                               ; preds = %51, %48
  %57 = load ptr, ptr %10, align 8
  %58 = icmp ne ptr %57, null
  br i1 %58, label %59, label %64

59:                                               ; preds = %56
  %60 = load float, ptr %14, align 4
  %61 = fmul float %60, 2.550000e+02
  %62 = fptoui float %61 to i8
  %63 = load ptr, ptr %10, align 8
  store i8 %62, ptr %63, align 1
  br label %64

64:                                               ; preds = %59, %56
  %65 = load ptr, ptr %11, align 8
  %66 = icmp ne ptr %65, null
  br i1 %66, label %67, label %72

67:                                               ; preds = %64
  %68 = load float, ptr %15, align 4
  %69 = fmul float %68, 2.550000e+02
  %70 = fptoui float %69 to i8
  %71 = load ptr, ptr %11, align 8
  store i8 %70, ptr %71, align 1
  br label %72

72:                                               ; preds = %67, %64
  store i1 true, ptr %6, align 1
  store i32 1, ptr %16, align 4
  br label %73

73:                                               ; preds = %72, %39
  call void @llvm.lifetime.end.p0(i64 4, ptr %15) #10
  call void @llvm.lifetime.end.p0(i64 4, ptr %14) #10
  call void @llvm.lifetime.end.p0(i64 4, ptr %13) #10
  call void @llvm.lifetime.end.p0(i64 4, ptr %12) #10
  %74 = load i1, ptr %6, align 1
  ret i1 %74
}