; Function Attrs: nounwind uwtable
define hidden noundef zeroext i1 @SDL_GetRenderDrawColor_REAL(ptr noundef %0, ptr noundef writeonly captures(address_is_null) %1, ptr noundef writeonly captures(address_is_null) %2, ptr noundef writeonly captures(address_is_null) %3, ptr noundef writeonly captures(address_is_null) %4) local_unnamed_addr #0 {
  %6 = tail call zeroext i1 @SDL_ObjectValid(ptr noundef %0, i32 noundef 2) #15
  br i1 %6, label %9, label %7

7:                                                ; preds = %5
  %8 = tail call zeroext i1 (ptr, ...) @SDL_SetError_REAL(ptr noundef nonnull @.str.2, ptr noundef nonnull @.str.5) #15
  br label %15

9:                                                ; preds = %5
  %10 = getelementptr inbounds nuw i8, ptr %0, i64 688
  %11 = load i8, ptr %10, align 8, !range !3, !noundef !4
  %12 = trunc nuw i8 %11 to i1
  br i1 %12, label %13, label %22

13:                                               ; preds = %9
  %14 = tail call zeroext i1 (ptr, ...) @SDL_SetError_REAL(ptr noundef nonnull @.str.29) #15
  br label %15

15:                                               ; preds = %13, %7
  %.not = icmp eq ptr %1, null
  br i1 %.not, label %17, label %16

16:                                               ; preds = %15
  store i8 0, ptr %1, align 1
  br label %17

17:                                               ; preds = %16, %15
  %.not25 = icmp eq ptr %2, null
  br i1 %.not25, label %19, label %18

18:                                               ; preds = %17
  store i8 0, ptr %2, align 1
  br label %19

19:                                               ; preds = %18, %17
  %.not26 = icmp eq ptr %3, null
  br i1 %.not26, label %21, label %20

20:                                               ; preds = %19
  store i8 0, ptr %3, align 1
  br label %21

21:                                               ; preds = %20, %19
  %.not27 = icmp eq ptr %4, null
  br i1 %.not27, label %39, label %.sink.split

22:                                               ; preds = %9
  %.sroa.4.0..sroa_idx.i = getelementptr inbounds nuw i8, ptr %0, i64 504
  %.sroa.4.0.copyload.i = load float, ptr %.sroa.4.0..sroa_idx.i, align 4
  %.sroa.5.0..sroa_idx.i = getelementptr inbounds nuw i8, ptr %0, i64 508
  %.sroa.5.0.copyload.i = load float, ptr %.sroa.5.0..sroa_idx.i, align 4
  %.sroa.6.0..sroa_idx.i = getelementptr inbounds nuw i8, ptr %0, i64 512
  %.sroa.6.0.copyload.i = load float, ptr %.sroa.6.0..sroa_idx.i, align 4
  %.not28 = icmp eq ptr %1, null
  br i1 %.not28, label %27, label %23

23:                                               ; preds = %22
  %24 = getelementptr inbounds nuw i8, ptr %0, i64 500
  %.sroa.0.0.copyload.i = load float, ptr %24, align 4
  %25 = fmul float %.sroa.0.0.copyload.i, 2.550000e+02
  %26 = fptoui float %25 to i8
  store i8 %26, ptr %1, align 1
  br label %27

27:                                               ; preds = %23, %22
  %.not29 = icmp eq ptr %2, null
  br i1 %.not29, label %31, label %28

28:                                               ; preds = %27
  %29 = fmul float %.sroa.4.0.copyload.i, 2.550000e+02
  %30 = fptoui float %29 to i8
  store i8 %30, ptr %2, align 1
  br label %31

31:                                               ; preds = %28, %27
  %.not30 = icmp eq ptr %3, null
  br i1 %.not30, label %35, label %32

32:                                               ; preds = %31
  %33 = fmul float %.sroa.5.0.copyload.i, 2.550000e+02
  %34 = fptoui float %33 to i8
  store i8 %34, ptr %3, align 1
  br label %35

35:                                               ; preds = %32, %31
  %.not31 = icmp eq ptr %4, null
  br i1 %.not31, label %39, label %36

36:                                               ; preds = %35
  %37 = fmul float %.sroa.6.0.copyload.i, 2.550000e+02
  %38 = fptoui float %37 to i8
  br label %.sink.split

.sink.split:                                      ; preds = %21, %36
  %.sink = phi i8 [ %38, %36 ], [ 0, %21 ]
  %.0.i43.ph = phi i1 [ true, %36 ], [ false, %21 ]
  store i8 %.sink, ptr %4, align 1
  br label %39

39:                                               ; preds = %.sink.split, %35, %21
  %.0.i43 = phi i1 [ true, %35 ], [ false, %21 ], [ %.0.i43.ph, %.sink.split ]
  ret i1 %.0.i43
}